; Function Attrs: mustprogress uwtable
define dso_local noundef zeroext i1 @_ZN4i18n12phonenumbers18PhoneNumberMatcher4NextEPNS0_16PhoneNumberMatchE(ptr noundef nonnull align 8 dereferenceable(117) %0, ptr noundef %1) local_unnamed_addr #4 align 2 {
  %3 = tail call noundef zeroext i1 @_ZN4i18n12phonenumbers18PhoneNumberMatcher7HasNextEv(ptr noundef nonnull align 8 dereferenceable(117) %0)
  br i1 %3, label %4, label %_ZN5boost10scoped_ptrIN4i18n12phonenumbers16PhoneNumberMatchEE5resetEPS3_.exit

4:                                                ; preds = %2
  %5 = getelementptr inbounds i8, ptr %0, i64 104
  %6 = load ptr, ptr %5, align 8
  tail call void @_ZN4i18n12phonenumbers16PhoneNumberMatch8CopyFromERKS1_(ptr noundef nonnull align 8 dereferenceable(112) %1, ptr noundef nonnull align 8 dereferenceable(112) %6)
  %7 = getelementptr inbounds i8, ptr %0, i64 96
  store i32 0, ptr %7, align 8
  %8 = load ptr, ptr %5, align 8
  store ptr null, ptr %5, align 8
  %9 = icmp eq ptr %8, null
  br i1 %9, label %_ZN5boost10scoped_ptrIN4i18n12phonenumbers16PhoneNumberMatchEE5resetEPS3_.exit, label %10

10:                                               ; preds = %4
  %11 = getelementptr inbounds i8, ptr %8, i64 40
  tail call void @_ZN4i18n12phonenumbers11PhoneNumberD1Ev(ptr noundef nonnull align 8 dereferenceable(72) %11) #19
  %12 = getelementptr inbounds i8, ptr %8, i64 8
  tail call void @_ZNSt7__cxx1112basic_stringIcSt11char_traitsIcESaIcEED1Ev(ptr noundef nonnull align 8 dereferenceable(32) %12) #19
  tail call void @_ZdlPv(ptr noundef nonnull %8) #22
  br label %_ZN5boost10scoped_ptrIN4i18n12phonenumbers16PhoneNumberMatchEE5resetEPS3_.exit

_ZN5boost10scoped_ptrIN4i18n12phonenumbers16PhoneNumberMatchEE5resetEPS3_.exit: ; preds = %10, %4, %2
  ret i1 %3
}